; Function Attrs: mustprogress uwtable
define dso_local noundef zeroext i1 @_ZN4i18n12phonenumbers35PhoneNumber_CountryCodeSource_ParseERKNSt7__cxx1112basic_stringIcSt11char_traitsIcESaIcEEEPNS0_29PhoneNumber_CountryCodeSourceE(ptr noundef nonnull readonly align 8 captures(none) dereferenceable(32) %0, ptr noundef writeonly captures(none) %1) local_unnamed_addr #3 {
  %3 = alloca i32, align 4
  call void @llvm.lifetime.start.p0(i64 4, ptr nonnull %3) #23
  %4 = load ptr, ptr %0, align 8, !tbaa !28
  %5 = getelementptr inbounds nuw i8, ptr %0, i64 8
  %6 = load i64, ptr %5, align 8, !tbaa !32
  %7 = call noundef zeroext i1 @_ZN6google8protobuf8internal15LookUpEnumValueEPKNS1_9EnumEntryEmNS0_11StringPieceEPi(ptr noundef nonnull @_ZN4i18n12phonenumbersL37PhoneNumber_CountryCodeSource_entriesE, i64 noundef 5, ptr %4, i64 %6, ptr noundef nonnull %3)
  br i1 %7, label %8, label %10

8:                                                ; preds = %2
  %9 = load i32, ptr %3, align 4, !tbaa !33
  store i32 %9, ptr %1, align 4, !tbaa !34
  br label %10

10:                                               ; preds = %8, %2
  call void @llvm.lifetime.end.p0(i64 4, ptr nonnull %3) #23
  ret i1 %7
}